target datalayout = "e-m:e-p270:32:32-p271:32:32-p272:64:64-i64:64-i128:128-f80:128-n8:16:32:64-S128"
target triple = "x86_64-pc-linux-gnu"

%"class.std::__cxx11::basic_string" = type { %"struct.std::__cxx11::basic_string<char>::_Alloc_hider", i64, %union.anon }
%"struct.std::__cxx11::basic_string<char>::_Alloc_hider" = type { ptr }
%union.anon = type { i64, [8 x i8] }
%class.cmFindBaseDebugState = type { ptr, %"class.std::__cxx11::basic_string", %"class.std::vector.461", %"struct.cmFindBaseDebugState::DebugLibState" }
%"class.std::vector.461" = type { %"struct.std::_Vector_base.462" }
%"struct.std::_Vector_base.462" = type { %"struct.std::_Vector_base<cmFindBaseDebugState::DebugLibState, std::allocator<cmFindBaseDebugState::DebugLibState>>::_Vector_impl" }
%"struct.std::_Vector_base<cmFindBaseDebugState::DebugLibState, std::allocator<cmFindBaseDebugState::DebugLibState>>::_Vector_impl" = type { %"struct.std::_Vector_base<cmFindBaseDebugState::DebugLibState, std::allocator<cmFindBaseDebugState::DebugLibState>>::_Vector_impl_data" }
%"struct.std::_Vector_base<cmFindBaseDebugState::DebugLibState, std::allocator<cmFindBaseDebugState::DebugLibState>>::_Vector_impl_data" = type { ptr, ptr, ptr }
%"struct.cmFindBaseDebugState::DebugLibState" = type { %"class.std::__cxx11::basic_string", %"class.std::__cxx11::basic_string" }

; Function Attrs: mustprogress nounwind uwtable
define linkonce_odr dso_local void @_ZNSt15__new_allocatorIN20cmFindBaseDebugState13DebugLibStateEEC2Ev(ptr noundef nonnull align 1 dereferenceable(1) %0) unnamed_addr #5 comdat align 2 {
  %2 = alloca ptr, align 8
  store ptr %0, ptr %2, align 8
  ret void
}

; Function Attrs: mustprogress nounwind uwtable
define linkonce_odr dso_local void @_ZNSt12_Vector_baseIN20cmFindBaseDebugState13DebugLibStateESaIS1_EE17_Vector_impl_dataC2Ev(ptr noundef nonnull align 8 dereferenceable(24) %0) unnamed_addr #5 comdat align 2 {
  %2 = alloca ptr, align 8
  store ptr %0, ptr %2, align 8
  %3 = load ptr, ptr %2, align 8
  %4 = getelementptr inbounds %"struct.std::_Vector_base<cmFindBaseDebugState::DebugLibState, std::allocator<cmFindBaseDebugState::DebugLibState>>::_Vector_impl_data", ptr %3, i32 0, i32 0
  store ptr null, ptr %4, align 8
  %5 = getelementptr inbounds %"struct.std::_Vector_base<cmFindBaseDebugState::DebugLibState, std::allocator<cmFindBaseDebugState::DebugLibState>>::_Vector_impl_data", ptr %3, i32 0, i32 1
  store ptr null, ptr %5, align 8
  %6 = getelementptr inbounds %"struct.std::_Vector_base<cmFindBaseDebugState::DebugLibState, std::allocator<cmFindBaseDebugState::DebugLibState>>::_Vector_impl_data", ptr %3, i32 0, i32 2
  store ptr null, ptr %6, align 8
  ret void
}

; Function Attrs: mustprogress nounwind uwtable
define linkonce_odr dso_local void @_ZNSaIN20cmFindBaseDebugState13DebugLibStateEEC2Ev(ptr noundef nonnull align 1 dereferenceable(1) %0) unnamed_addr #5 comdat align 2 {
  %2 = alloca ptr, align 8
  store ptr %0, ptr %2, align 8
  %3 = load ptr, ptr %2, align 8
  call void @_ZNSt15__new_allocatorIN20cmFindBaseDebugState13DebugLibStateEEC2Ev(ptr noundef nonnull align 1 dereferenceable(1) %3) #3
  ret void
}

; Function Attrs: mustprogress nounwind uwtable
define linkonce_odr dso_local void @_ZNSt12_Vector_baseIN20cmFindBaseDebugState13DebugLibStateESaIS1_EE12_Vector_implC2Ev(ptr noundef nonnull align 8 dereferenceable(24) %0) unnamed_addr #5 comdat align 2 {
  %2 = alloca ptr, align 8
  store ptr %0, ptr %2, align 8
  %3 = load ptr, ptr %2, align 8
  call void @_ZNSaIN20cmFindBaseDebugState13DebugLibStateEEC2Ev(ptr noundef nonnull align 1 dereferenceable(1) %3) #3
  call void @_ZNSt12_Vector_baseIN20cmFindBaseDebugState13DebugLibStateESaIS1_EE17_Vector_impl_dataC2Ev(ptr noundef nonnull align 8 dereferenceable(24) %3) #3
  ret void
}

; Function Attrs: mustprogress nounwind uwtable
define linkonce_odr dso_local void @_ZNSt12_Vector_baseIN20cmFindBaseDebugState13DebugLibStateESaIS1_EEC2Ev(ptr noundef nonnull align 8 dereferenceable(24) %0) unnamed_addr #5 comdat align 2 {
  %2 = alloca ptr, align 8
  store ptr %0, ptr %2, align 8
  %3 = load ptr, ptr %2, align 8
  %4 = getelementptr inbounds %"struct.std::_Vector_base.462", ptr %3, i32 0, i32 0
  call void @_ZNSt12_Vector_baseIN20cmFindBaseDebugState13DebugLibStateESaIS1_EE12_Vector_implC2Ev(ptr noundef nonnull align 8 dereferenceable(24) %4) #3
  ret void
}

; Function Attrs: mustprogress nounwind uwtable
define linkonce_odr dso_local void @_ZN20cmFindBaseDebugState13DebugLibStateC2Ev(ptr noundef nonnull align 8 dereferenceable(64) %0) unnamed_addr #5 comdat align 2 {
  %2 = alloca ptr, align 8
  store ptr %0, ptr %2, align 8
  %3 = load ptr, ptr %2, align 8
  %4 = getelementptr inbounds %"struct.cmFindBaseDebugState::DebugLibState", ptr %3, i32 0, i32 0
  call void @_ZNSt7__cxx1112basic_stringIcSt11char_traitsIcESaIcEEC1Ev(ptr noundef nonnull align 8 dereferenceable(32) %4) #3
  %5 = getelementptr inbounds %"struct.cmFindBaseDebugState::DebugLibState", ptr %3, i32 0, i32 1
  call void @_ZNSt7__cxx1112basic_stringIcSt11char_traitsIcESaIcEEC1Ev(ptr noundef nonnull align 8 dereferenceable(32) %5) #3
  ret void
}

; Function Attrs: mustprogress nounwind uwtable
define linkonce_odr dso_local void @_ZNSt6vectorIN20cmFindBaseDebugState13DebugLibStateESaIS1_EEC2Ev(ptr noundef nonnull align 8 dereferenceable(24) %0) unnamed_addr #5 comdat align 2 {
  %2 = alloca ptr, align 8
  store ptr %0, ptr %2, align 8
  %3 = load ptr, ptr %2, align 8
  call void @_ZNSt12_Vector_baseIN20cmFindBaseDebugState13DebugLibStateESaIS1_EEC2Ev(ptr noundef nonnull align 8 dereferenceable(24) %3) #3
  ret void
}

; Function Attrs: mustprogress nounwind uwtable
define dso_local void @_ZN20cmFindBaseDebugStateC2ENSt7__cxx1112basic_stringIcSt11char_traitsIcESaIcEEEPK10cmFindBase(ptr noundef nonnull align 8 dereferenceable(128) %0, ptr noundef %1, ptr noundef %2) unnamed_addr #5 align 2 {
  %4 = alloca ptr, align 8
  %5 = alloca ptr, align 8
  %6 = alloca ptr, align 8
  store ptr %0, ptr %4, align 8
  store ptr %1, ptr %5, align 8
  store ptr %2, ptr %6, align 8
  %7 = load ptr, ptr %4, align 8
  %8 = getelementptr inbounds %class.cmFindBaseDebugState, ptr %7, i32 0, i32 0
  %9 = load ptr, ptr %6, align 8
  store ptr %9, ptr %8, align 8
  %10 = getelementptr inbounds %class.cmFindBaseDebugState, ptr %7, i32 0, i32 1
  call void @_ZNSt7__cxx1112basic_stringIcSt11char_traitsIcESaIcEEC1EOS4_(ptr noundef nonnull align 8 dereferenceable(32) %10, ptr noundef nonnull align 8 dereferenceable(32) %1) #3
  %11 = getelementptr inbounds %class.cmFindBaseDebugState, ptr %7, i32 0, i32 2
  call void @_ZNSt6vectorIN20cmFindBaseDebugState13DebugLibStateESaIS1_EEC2Ev(ptr noundef nonnull align 8 dereferenceable(24) %11) #3
  %12 = getelementptr inbounds %class.cmFindBaseDebugState, ptr %7, i32 0, i32 3
  call void @_ZN20cmFindBaseDebugState13DebugLibStateC2Ev(ptr noundef nonnull align 8 dereferenceable(64) %12) #3
  ret void
}